target datalayout = "e-m:e-p270:32:32-p271:32:32-p272:64:64-i64:64-i128:128-f80:128-n8:16:32:64-S128"
target triple = "x86_64-unknown-linux-gnu"

%"class.Imf_3_2::SampleCountChannel" = type { %"class.Imf_3_2::ImageChannel", ptr, ptr, ptr, ptr, i64, i64, i64 }
%"class.Imf_3_2::ImageChannel" = type { ptr, ptr, i32, i32, i8, i32, i32, i64 }
%"class.Imath_3_2::Box" = type { %"class.Imath_3_2::Vec2", %"class.Imath_3_2::Vec2" }
%"class.Imath_3_2::Vec2" = type { i32, i32 }
%"class.Imf_3_2::ImageLevel" = type { ptr, ptr, i32, i32, %"class.Imath_3_2::Box" }

; Function Attrs: mustprogress nounwind uwtable
define linkonce_odr hidden noundef nonnull align 4 dereferenceable(8) ptr @_ZN9Imath_3_24Vec2IiEaSERKS1_(ptr noundef nonnull align 4 dereferenceable(8) %this, ptr noundef nonnull align 4 dereferenceable(8) %v) #5 comdat align 2 {
entry:
  %this.addr = alloca ptr, align 8
  %v.addr = alloca ptr, align 8
  store ptr %this, ptr %this.addr, align 8
  store ptr %v, ptr %v.addr, align 8
  %this1 = load ptr, ptr %this.addr, align 8
  %0 = load ptr, ptr %v.addr, align 8
  %x = getelementptr inbounds %"class.Imath_3_2::Vec2", ptr %0, i32 0, i32 0
  %1 = load i32, ptr %x, align 4
  %x2 = getelementptr inbounds %"class.Imath_3_2::Vec2", ptr %this1, i32 0, i32 0
  store i32 %1, ptr %x2, align 4
  %2 = load ptr, ptr %v.addr, align 8
  %y = getelementptr inbounds %"class.Imath_3_2::Vec2", ptr %2, i32 0, i32 1
  %3 = load i32, ptr %y, align 4
  %y3 = getelementptr inbounds %"class.Imath_3_2::Vec2", ptr %this1, i32 0, i32 1
  store i32 %3, ptr %y3, align 4
  ret ptr %this1
}

; Function Attrs: mustprogress nounwind uwtable
define linkonce_odr hidden void @_ZN9Imath_3_24Vec2IiEC2Ev(ptr noundef nonnull align 4 dereferenceable(8) %this) unnamed_addr #5 comdat align 2 {
entry:
  %this.addr = alloca ptr, align 8
  store ptr %this, ptr %this.addr, align 8
  ret void
}

; Function Attrs: mustprogress uwtable
define noundef nonnull align 8 dereferenceable(192) ptr @_ZN7Imf_3_218SampleCountChannel9deepLevelEv(ptr noundef nonnull align 8 dereferenceable(104) %this) #4 align 2 {
entry:
  %this.addr = alloca ptr, align 8
  store ptr %this, ptr %this.addr, align 8
  %this1 = load ptr, ptr %this.addr, align 8
  %call = call noundef nonnull align 8 dereferenceable(40) ptr @_ZN7Imf_3_212ImageChannel5levelEv(ptr noundef nonnull align 8 dereferenceable(48) %this1)
  ret ptr %call
}

; Function Attrs: mustprogress nounwind uwtable
define internal noundef i64 @_ZN7Imf_3_212_GLOBAL__N_117roundBufferSizeUpEm(i64 noundef %n) #5 {
entry:
  %n.addr = alloca i64, align 8
  store i64 %n, ptr %n.addr, align 8
  %0 = load i64, ptr %n.addr, align 8
  %1 = load i64, ptr %n.addr, align 8
  %div = udiv i64 %1, 2
  %add = add i64 %0, %div
  ret i64 %add
}

; Function Attrs: mustprogress nounwind uwtable
define linkonce_odr hidden void @_ZN9Imath_3_23BoxINS_4Vec2IiEEEC2ERKS2_S5_(ptr noundef nonnull align 4 dereferenceable(16) %this, ptr noundef nonnull align 4 dereferenceable(8) %minT, ptr noundef nonnull align 4 dereferenceable(8) %maxT) unnamed_addr #5 comdat align 2 {
entry:
  %this.addr = alloca ptr, align 8
  %minT.addr = alloca ptr, align 8
  %maxT.addr = alloca ptr, align 8
  store ptr %this, ptr %this.addr, align 8
  store ptr %minT, ptr %minT.addr, align 8
  store ptr %maxT, ptr %maxT.addr, align 8
  %this1 = load ptr, ptr %this.addr, align 8
  %min = getelementptr inbounds %"class.Imath_3_2::Box", ptr %this1, i32 0, i32 0
  call void @_ZN9Imath_3_24Vec2IiEC2Ev(ptr noundef nonnull align 4 dereferenceable(8) %min) #3
  %max = getelementptr inbounds %"class.Imath_3_2::Box", ptr %this1, i32 0, i32 1
  call void @_ZN9Imath_3_24Vec2IiEC2Ev(ptr noundef nonnull align 4 dereferenceable(8) %max) #3
  %0 = load ptr, ptr %minT.addr, align 8
  %min2 = getelementptr inbounds %"class.Imath_3_2::Box", ptr %this1, i32 0, i32 0
  %call = call noundef nonnull align 4 dereferenceable(8) ptr @_ZN9Imath_3_24Vec2IiEaSERKS1_(ptr noundef nonnull align 4 dereferenceable(8) %min2, ptr noundef nonnull align 4 dereferenceable(8) %0) #3
  %1 = load ptr, ptr %maxT.addr, align 8
  %max3 = getelementptr inbounds %"class.Imath_3_2::Box", ptr %this1, i32 0, i32 1
  %call4 = call noundef nonnull align 4 dereferenceable(8) ptr @_ZN9Imath_3_24Vec2IiEaSERKS1_(ptr noundef nonnull align 4 dereferenceable(8) %max3, ptr noundef nonnull align 4 dereferenceable(8) %1) #3
  ret void
}

; Function Attrs: mustprogress nounwind uwtable
define linkonce_odr hidden void @_ZN9Imath_3_24Vec2IiEC2Eii(ptr noundef nonnull align 4 dereferenceable(8) %this, i32 noundef %a, i32 noundef %b) unnamed_addr #5 comdat align 2 {
entry:
  %this.addr = alloca ptr, align 8
  %a.addr = alloca i32, align 4
  %b.addr = alloca i32, align 4
  store ptr %this, ptr %this.addr, align 8
  store i32 %a, ptr %a.addr, align 4
  store i32 %b, ptr %b.addr, align 4
  %this1 = load ptr, ptr %this.addr, align 8
  %x = getelementptr inbounds %"class.Imath_3_2::Vec2", ptr %this1, i32 0, i32 0
  %0 = load i32, ptr %a.addr, align 4
  store i32 %0, ptr %x, align 4
  %y = getelementptr inbounds %"class.Imath_3_2::Vec2", ptr %this1, i32 0, i32 1
  %1 = load i32, ptr %b.addr, align 4
  store i32 %1, ptr %y, align 4
  ret void
}

; Function Attrs: mustprogress nounwind uwtable
define linkonce_odr hidden noundef nonnull align 8 dereferenceable(104) ptr @_ZN7Imf_3_210ImageLevel5imageEv(ptr noundef nonnull align 8 dereferenceable(40) %this) #5 comdat align 2 {
entry:
  %this.addr = alloca ptr, align 8
  store ptr %this, ptr %this.addr, align 8
  %this1 = load ptr, ptr %this.addr, align 8
  %_image = getelementptr inbounds %"class.Imf_3_2::ImageLevel", ptr %this1, i32 0, i32 1
  %0 = load ptr, ptr %_image, align 8
  ret ptr %0
}

; Function Attrs: mustprogress nounwind uwtable
define linkonce_odr hidden noundef nonnull align 8 dereferenceable(40) ptr @_ZN7Imf_3_212ImageChannel5levelEv(ptr noundef nonnull align 8 dereferenceable(48) %this) #5 comdat align 2 {
entry:
  %this.addr = alloca ptr, align 8
  store ptr %this, ptr %this.addr, align 8
  %this1 = load ptr, ptr %this.addr, align 8
  %_level = getelementptr inbounds %"class.Imf_3_2::ImageChannel", ptr %this1, i32 0, i32 1
  %0 = load ptr, ptr %_level, align 8
  ret ptr %0
}

; Function Attrs: mustprogress nounwind uwtable
define internal noundef i32 @_ZN7Imf_3_212_GLOBAL__N_115roundListSizeUpEj(i32 noundef %n) #5 {
entry:
  %retval = alloca i32, align 4
  %n.addr = alloca i32, align 4
  %s = alloca i32, align 4
  store i32 %n, ptr %n.addr, align 4
  %0 = load i32, ptr %n.addr, align 4
  %cmp = icmp eq i32 %0, 0
  br i1 %cmp, label %if.then, label %if.end

if.then:                                          ; preds = %entry
  store i32 0, ptr %retval, align 4
  br label %return

if.end:                                           ; preds = %entry
  store i32 1, ptr %s, align 4
  br label %while.cond

while.cond:                                       ; preds = %while.body, %if.end
  %1 = load i32, ptr %s, align 4
  %2 = load i32, ptr %n.addr, align 4
  %cmp1 = icmp ult i32 %1, %2
  br i1 %cmp1, label %while.body, label %while.end

while.body:                                       ; preds = %while.cond
  %3 = load i32, ptr %s, align 4
  %shl = shl i32 %3, 1
  store i32 %shl, ptr %s, align 4
  br label %while.cond, !llvm.loop !6

while.end:                                        ; preds = %while.cond
  %4 = load i32, ptr %s, align 4
  store i32 %4, ptr %retval, align 4
  br label %return

return:                                           ; preds = %while.end, %if.then
  %5 = load i32, ptr %retval, align 4
  ret i32 %5
}

; Function Attrs: mustprogress nounwind uwtable
define linkonce_odr hidden noundef i64 @_ZNK7Imf_3_212ImageChannel9numPixelsEv(ptr noundef nonnull align 8 dereferenceable(48) %this) #5 comdat align 2 {
entry:
  %this.addr = alloca ptr, align 8
  store ptr %this, ptr %this.addr, align 8
  %this1 = load ptr, ptr %this.addr, align 8
  %_numPixels = getelementptr inbounds %"class.Imf_3_2::ImageChannel", ptr %this1, i32 0, i32 7
  %0 = load i64, ptr %_numPixels, align 8
  ret i64 %0
}

; Function Attrs: mustprogress uwtable
define void @_ZN7Imf_3_218SampleCountChannel7endEditEv(ptr noundef nonnull align 8 dereferenceable(104) %this) #4 align 2 personality ptr @__gxx_personality_v0 {
entry:
  %this.addr = alloca ptr, align 8
  %i = alloca i64, align 8
  %exn.slot = alloca ptr, align 8
  %ehselector.slot = alloca i32, align 4
  %ref.tmp = alloca %"class.Imath_3_2::Box", align 4
  %ref.tmp26 = alloca %"class.Imath_3_2::Vec2", align 4
  %ref.tmp27 = alloca %"class.Imath_3_2::Vec2", align 4
  store ptr %this, ptr %this.addr, align 8
  %this1 = load ptr, ptr %this.addr, align 8
  %_totalNumSamples = getelementptr inbounds %"class.Imf_3_2::SampleCountChannel", ptr %this1, i32 0, i32 5
  store i64 0, ptr %_totalNumSamples, align 8
  %_totalSamplesOccupied = getelementptr inbounds %"class.Imf_3_2::SampleCountChannel", ptr %this1, i32 0, i32 6
  store i64 0, ptr %_totalSamplesOccupied, align 8
  store i64 0, ptr %i, align 8
  br label %for.cond

for.cond:                                         ; preds = %for.inc, %entry
  %0 = load i64, ptr %i, align 8
  %call = invoke noundef i64 @_ZNK7Imf_3_212ImageChannel9numPixelsEv(ptr noundef nonnull align 8 dereferenceable(48) %this1)
          to label %invoke.cont unwind label %lpad

invoke.cont:                                      ; preds = %for.cond
  %cmp = icmp ult i64 %0, %call
  br i1 %cmp, label %for.body, label %for.end

for.body:                                         ; preds = %invoke.cont
  %_numSamples = getelementptr inbounds %"class.Imf_3_2::SampleCountChannel", ptr %this1, i32 0, i32 1
  %1 = load ptr, ptr %_numSamples, align 8
  %2 = load i64, ptr %i, align 8
  %arrayidx = getelementptr inbounds i32, ptr %1, i64 %2
  %3 = load i32, ptr %arrayidx, align 4
  %call3 = invoke noundef i32 @_ZN7Imf_3_212_GLOBAL__N_115roundListSizeUpEj(i32 noundef %3)
          to label %invoke.cont2 unwind label %lpad

invoke.cont2:                                     ; preds = %for.body
  %_sampleListSizes = getelementptr inbounds %"class.Imf_3_2::SampleCountChannel", ptr %this1, i32 0, i32 3
  %4 = load ptr, ptr %_sampleListSizes, align 8
  %5 = load i64, ptr %i, align 8
  %arrayidx4 = getelementptr inbounds i32, ptr %4, i64 %5
  store i32 %call3, ptr %arrayidx4, align 4
  %_totalSamplesOccupied5 = getelementptr inbounds %"class.Imf_3_2::SampleCountChannel", ptr %this1, i32 0, i32 6
  %6 = load i64, ptr %_totalSamplesOccupied5, align 8
  %_sampleListPositions = getelementptr inbounds %"class.Imf_3_2::SampleCountChannel", ptr %this1, i32 0, i32 4
  %7 = load ptr, ptr %_sampleListPositions, align 8
  %8 = load i64, ptr %i, align 8
  %arrayidx6 = getelementptr inbounds i64, ptr %7, i64 %8
  store i64 %6, ptr %arrayidx6, align 8
  %_numSamples7 = getelementptr inbounds %"class.Imf_3_2::SampleCountChannel", ptr %this1, i32 0, i32 1
  %9 = load ptr, ptr %_numSamples7, align 8
  %10 = load i64, ptr %i, align 8
  %arrayidx8 = getelementptr inbounds i32, ptr %9, i64 %10
  %11 = load i32, ptr %arrayidx8, align 4
  %conv = zext i32 %11 to i64
  %_totalNumSamples9 = getelementptr inbounds %"class.Imf_3_2::SampleCountChannel", ptr %this1, i32 0, i32 5
  %12 = load i64, ptr %_totalNumSamples9, align 8
  %add = add i64 %12, %conv
  store i64 %add, ptr %_totalNumSamples9, align 8
  %_sampleListSizes10 = getelementptr inbounds %"class.Imf_3_2::SampleCountChannel", ptr %this1, i32 0, i32 3
  %13 = load ptr, ptr %_sampleListSizes10, align 8
  %14 = load i64, ptr %i, align 8
  %arrayidx11 = getelementptr inbounds i32, ptr %13, i64 %14
  %15 = load i32, ptr %arrayidx11, align 4
  %conv12 = zext i32 %15 to i64
  %_totalSamplesOccupied13 = getelementptr inbounds %"class.Imf_3_2::SampleCountChannel", ptr %this1, i32 0, i32 6
  %16 = load i64, ptr %_totalSamplesOccupied13, align 8
  %add14 = add i64 %16, %conv12
  store i64 %add14, ptr %_totalSamplesOccupied13, align 8
  br label %for.inc

for.inc:                                          ; preds = %invoke.cont2
  %17 = load i64, ptr %i, align 8
  %inc = add i64 %17, 1
  store i64 %inc, ptr %i, align 8
  br label %for.cond, !llvm.loop !9

lpad:                                             ; preds = %invoke.cont18, %invoke.cont16, %for.end, %for.body, %for.cond
  %18 = landingpad { ptr, i32 }
          catch ptr null
  %19 = extractvalue { ptr, i32 } %18, 0
  store ptr %19, ptr %exn.slot, align 8
  %20 = extractvalue { ptr, i32 } %18, 1
  store i32 %20, ptr %ehselector.slot, align 4
  br label %catch

catch:                                            ; preds = %lpad
  %exn = load ptr, ptr %exn.slot, align 8
  %21 = call ptr @__cxa_begin_catch(ptr %exn) #3
  %call23 = invoke noundef nonnull align 8 dereferenceable(40) ptr @_ZN7Imf_3_212ImageChannel5levelEv(ptr noundef nonnull align 8 dereferenceable(48) %this1)
          to label %invoke.cont22 unwind label %lpad21

invoke.cont22:                                    ; preds = %catch
  %call25 = invoke noundef nonnull align 8 dereferenceable(104) ptr @_ZN7Imf_3_210ImageLevel5imageEv(ptr noundef nonnull align 8 dereferenceable(40) %call23)
          to label %invoke.cont24 unwind label %lpad21

invoke.cont24:                                    ; preds = %invoke.cont22
  call void @_ZN9Imath_3_24Vec2IiEC2Eii(ptr noundef nonnull align 4 dereferenceable(8) %ref.tmp26, i32 noundef 0, i32 noundef 0) #3
  call void @_ZN9Imath_3_24Vec2IiEC2Eii(ptr noundef nonnull align 4 dereferenceable(8) %ref.tmp27, i32 noundef -1, i32 noundef -1) #3
  call void @_ZN9Imath_3_23BoxINS_4Vec2IiEEEC2ERKS2_S5_(ptr noundef nonnull align 4 dereferenceable(16) %ref.tmp, ptr noundef nonnull align 4 dereferenceable(8) %ref.tmp26, ptr noundef nonnull align 4 dereferenceable(8) %ref.tmp27) #3
  invoke void @_ZN7Imf_3_25Image6resizeERKN9Imath_3_23BoxINS1_4Vec2IiEEEE(ptr noundef nonnull align 8 dereferenceable(104) %call25, ptr noundef nonnull align 4 dereferenceable(16) %ref.tmp)
          to label %invoke.cont28 unwind label %lpad21

invoke.cont28:                                    ; preds = %invoke.cont24
  invoke void @__cxa_rethrow() #12
          to label %unreachable unwind label %lpad21

for.end:                                          ; preds = %invoke.cont
  %_totalSamplesOccupied15 = getelementptr inbounds %"class.Imf_3_2::SampleCountChannel", ptr %this1, i32 0, i32 6
  %22 = load i64, ptr %_totalSamplesOccupied15, align 8
  %call17 = invoke noundef i64 @_ZN7Imf_3_212_GLOBAL__N_117roundBufferSizeUpEm(i64 noundef %22)
          to label %invoke.cont16 unwind label %lpad

invoke.cont16:                                    ; preds = %for.end
  %_sampleBufferSize = getelementptr inbounds %"class.Imf_3_2::SampleCountChannel", ptr %this1, i32 0, i32 7
  store i64 %call17, ptr %_sampleBufferSize, align 8
  %call19 = invoke noundef nonnull align 8 dereferenceable(192) ptr @_ZN7Imf_3_218SampleCountChannel9deepLevelEv(ptr noundef nonnull align 8 dereferenceable(104) %this1)
          to label %invoke.cont18 unwind label %lpad

invoke.cont18:                                    ; preds = %invoke.cont16
  invoke void @_ZN7Imf_3_214DeepImageLevel21initializeSampleListsEv(ptr noundef nonnull align 8 dereferenceable(192) %call19)
          to label %invoke.cont20 unwind label %lpad

invoke.cont20:                                    ; preds = %invoke.cont18
  br label %try.cont

lpad21:                                           ; preds = %invoke.cont28, %invoke.cont24, %invoke.cont22, %catch
  %23 = landingpad { ptr, i32 }
          cleanup
  %24 = extractvalue { ptr, i32 } %23, 0
  store ptr %24, ptr %exn.slot, align 8
  %25 = extractvalue { ptr, i32 } %23, 1
  store i32 %25, ptr %ehselector.slot, align 4
  invoke void @__cxa_end_catch()
          to label %invoke.cont29 unwind label %terminate.lpad

invoke.cont29:                                    ; preds = %lpad21
  br label %eh.resume

try.cont:                                         ; preds = %invoke.cont20
  ret void

eh.resume:                                        ; preds = %invoke.cont29
  %exn30 = load ptr, ptr %exn.slot, align 8
  %sel = load i32, ptr %ehselector.slot, align 4
  %lpad.val = insertvalue { ptr, i32 } poison, ptr %exn30, 0
  %lpad.val31 = insertvalue { ptr, i32 } %lpad.val, i32 %sel, 1
  resume { ptr, i32 } %lpad.val31

terminate.lpad:                                   ; preds = %lpad21
  %26 = landingpad { ptr, i32 }
          catch ptr null
  %27 = extractvalue { ptr, i32 } %26, 0
  call void @__clang_call_terminate(ptr %27) #13
  unreachable

unreachable:                                      ; preds = %invoke.cont28
  unreachable
}