; Function Attrs: mustprogress uwtable
define void @_ZN7Imf_3_218SampleCountChannel7endEditEv(ptr nocapture noundef nonnull align 8 dereferenceable(104) %this) local_unnamed_addr #3 align 2 personality ptr @__gxx_personality_v0 {
entry:
  %ref.tmp = alloca %"class.Imath_3_2::Box", align 16
  %_totalNumSamples = getelementptr inbounds i8, ptr %this, i64 80
  %_totalSamplesOccupied = getelementptr inbounds i8, ptr %this, i64 88
  %_numPixels.i = getelementptr inbounds i8, ptr %this, i64 40
  tail call void @llvm.memset.p0.i64(ptr noundef nonnull align 8 dereferenceable(16) %_totalNumSamples, i8 0, i64 16, i1 false)
  %0 = load i64, ptr %_numPixels.i, align 8
  %cmp8.not = icmp eq i64 %0, 0
  br i1 %cmp8.not, label %invoke.cont18, label %for.body.lr.ph

for.body.lr.ph:                                   ; preds = %entry
  %_numSamples = getelementptr inbounds i8, ptr %this, i64 48
  %_sampleListSizes = getelementptr inbounds i8, ptr %this, i64 64
  %_sampleListPositions = getelementptr inbounds i8, ptr %this, i64 72
  %.pre = load ptr, ptr %_numSamples, align 8
  br label %for.body

for.body:                                         ; preds = %for.body.lr.ph, %_ZN7Imf_3_212_GLOBAL__N_115roundListSizeUpEj.exit
  %1 = phi ptr [ %.pre, %for.body.lr.ph ], [ %6, %_ZN7Imf_3_212_GLOBAL__N_115roundListSizeUpEj.exit ]
  %i.09 = phi i64 [ 0, %for.body.lr.ph ], [ %inc, %_ZN7Imf_3_212_GLOBAL__N_115roundListSizeUpEj.exit ]
  %arrayidx = getelementptr inbounds i32, ptr %1, i64 %i.09
  %2 = load i32, ptr %arrayidx, align 4
  %cmp.i = icmp eq i32 %2, 0
  br i1 %cmp.i, label %_ZN7Imf_3_212_GLOBAL__N_115roundListSizeUpEj.exit, label %while.cond.i

while.cond.i:                                     ; preds = %for.body, %while.cond.i
  %s.0.i = phi i32 [ %shl.i, %while.cond.i ], [ 1, %for.body ]
  %cmp1.i = icmp ult i32 %s.0.i, %2
  %shl.i = shl i32 %s.0.i, 1
  br i1 %cmp1.i, label %while.cond.i, label %_ZN7Imf_3_212_GLOBAL__N_115roundListSizeUpEj.exit, !llvm.loop !4

_ZN7Imf_3_212_GLOBAL__N_115roundListSizeUpEj.exit: ; preds = %while.cond.i, %for.body
  %retval.0.i = phi i32 [ 0, %for.body ], [ %s.0.i, %while.cond.i ]
  %3 = load ptr, ptr %_sampleListSizes, align 8
  %arrayidx4 = getelementptr inbounds i32, ptr %3, i64 %i.09
  store i32 %retval.0.i, ptr %arrayidx4, align 4
  %4 = load i64, ptr %_totalSamplesOccupied, align 8
  %5 = load ptr, ptr %_sampleListPositions, align 8
  %arrayidx6 = getelementptr inbounds i64, ptr %5, i64 %i.09
  store i64 %4, ptr %arrayidx6, align 8
  %6 = load ptr, ptr %_numSamples, align 8
  %arrayidx8 = getelementptr inbounds i32, ptr %6, i64 %i.09
  %7 = load i32, ptr %arrayidx8, align 4
  %conv = zext i32 %7 to i64
  %8 = load i64, ptr %_totalNumSamples, align 8
  %add = add i64 %8, %conv
  store i64 %add, ptr %_totalNumSamples, align 8
  %9 = load ptr, ptr %_sampleListSizes, align 8
  %arrayidx11 = getelementptr inbounds i32, ptr %9, i64 %i.09
  %10 = load i32, ptr %arrayidx11, align 4
  %conv12 = zext i32 %10 to i64
  %add14 = add i64 %4, %conv12
  store i64 %add14, ptr %_totalSamplesOccupied, align 8
  %inc = add nuw i64 %i.09, 1
  %11 = load i64, ptr %_numPixels.i, align 8
  %cmp = icmp ult i64 %inc, %11
  br i1 %cmp, label %for.body, label %invoke.cont18, !llvm.loop !9

lpad:                                             ; preds = %invoke.cont18
  %12 = landingpad { ptr, i32 }
          catch ptr null
  %13 = extractvalue { ptr, i32 } %12, 0
  %14 = tail call ptr @__cxa_begin_catch(ptr %13) #13
  %15 = load ptr, ptr %_level.i.i, align 8
  %_image.i = getelementptr inbounds i8, ptr %15, i64 8
  %16 = load ptr, ptr %_image.i, align 8
  store <4 x i32> <i32 0, i32 0, i32 -1, i32 -1>, ptr %ref.tmp, align 16
  invoke void @_ZN7Imf_3_25Image6resizeERKN9Imath_3_23BoxINS1_4Vec2IiEEEE(ptr noundef nonnull align 8 dereferenceable(104) %16, ptr noundef nonnull align 4 dereferenceable(16) %ref.tmp)
          to label %invoke.cont28 unwind label %lpad21

invoke.cont28:                                    ; preds = %lpad
  invoke void @__cxa_rethrow() #16
          to label %unreachable unwind label %lpad21

invoke.cont18:                                    ; preds = %_ZN7Imf_3_212_GLOBAL__N_115roundListSizeUpEj.exit, %entry
  %17 = phi i64 [ 0, %entry ], [ %add14, %_ZN7Imf_3_212_GLOBAL__N_115roundListSizeUpEj.exit ]
  %div2.i = lshr i64 %17, 1
  %add.i = add i64 %div2.i, %17
  %_sampleBufferSize = getelementptr inbounds i8, ptr %this, i64 96
  store i64 %add.i, ptr %_sampleBufferSize, align 8
  %_level.i.i = getelementptr inbounds i8, ptr %this, i64 8
  %18 = load ptr, ptr %_level.i.i, align 8
  invoke void @_ZN7Imf_3_214DeepImageLevel21initializeSampleListsEv(ptr noundef nonnull align 8 dereferenceable(192) %18)
          to label %try.cont unwind label %lpad

lpad21:                                           ; preds = %invoke.cont28, %lpad
  %19 = landingpad { ptr, i32 }
          cleanup
  invoke void @__cxa_end_catch()
          to label %eh.resume unwind label %terminate.lpad

try.cont:                                         ; preds = %invoke.cont18
  ret void

eh.resume:                                        ; preds = %lpad21
  resume { ptr, i32 } %19

terminate.lpad:                                   ; preds = %lpad21
  %20 = landingpad { ptr, i32 }
          catch ptr null
  %21 = extractvalue { ptr, i32 } %20, 0
  call void @__clang_call_terminate(ptr %21) #17
  unreachable

unreachable:                                      ; preds = %invoke.cont28
  unreachable
}